ccopy_reg
_reconstructor
p0
(cgensim.models.tfidfmodel
TfidfModel
p1
c__builtin__
object
p2
Ntp3
Rp4
(dp5
S'normalize'
p6
I01
sS'idfs'
p7
(dp8
I0
F4.4329594072761065
sI1
F7.602884408718419
sI2
F8.339850002884624
sI3
F4.266601020853986
sI4
F7.2243727854646895
sI5
F5.04216945424394
sI6
F5.970616193218906
sI7
F8.339850002884624
sI8
F8.92481250360578
sI9
F8.92481250360578
sI10
F5.143452790081121
sI11
F9.92481250360578
sI12
F5.196892049042582
sI13
F8.92481250360578
sI14
F7.602884408718419
sI15
F7.602884408718419
sI16
F8.602884408718419
sI17
F5.465380884968483
sI18
F9.92481250360578
sI19
F9.92481250360578
sI20
F8.92481250360578
sI21
F5.837349662355441
sI22
F7.924812503605781
sI23
F8.339850002884624
sI24
F7.2243727854646895
sI25
F7.2243727854646895
sI26
F8.92481250360578
sI27
F8.92481250360578
sI28
F8.602884408718419
sI29
F9.92481250360578
sI30
F7.017921907997262
sI31
F7.2243727854646895
sI32
F6.017921907997262
sI33
F7.602884408718419
sI34
F8.92481250360578
sI35
F5.754887502163469
sI36
F5.754887502163469
sI37
F8.339850002884624
sI38
F9.92481250360578
sI39
F7.602884408718419
sI40
F8.339850002884624
sI41
F5.6394102847435335
sI42
F6.602884408718419
sI43
F6.169925001442312
sI44
F7.2243727854646895
sI45
F7.465380884968484
sI46
F6.339850002884625
sI47
F6.92481250360578
sI48
F5.754887502163469
sI49
F8.339850002884624
sI50
F6.602884408718419
sI51
F6.602884408718419
sI52
F5.602884408718419
sI53
F9.339850002884624
sI54
F6.169925001442312
sI55
F8.339850002884624
sI56
F9.92481250360578
sI57
F6.92481250360578
sI58
F6.532495080827021
sI59
F8.117457581548177
sI60
F8.92481250360578
sI61
F7.339850002884624
sI62
F7.754887502163469
sI63
F9.92481250360578
sI64
F4.481869007757052
sI65
F6.017921907997262
sI66
F7.754887502163469
sI67
F5.92481250360578
sI68
F5.017921907997263
sI69
F6.92481250360578
sI70
F8.117457581548177
sI71
F8.92481250360578
sI72
F8.92481250360578
sI73
F5.5672604989876975
sI74
F9.92481250360578
sI75
F6.754887502163469
sI76
F5.880418384247327
sI77
F7.117457581548177
sI78
F6.465380884968484
sI79
F9.92481250360578
sI80
F6.465380884968484
sI81
F8.92481250360578
sI82
F8.92481250360578
sI83
F7.754887502163469
sI84
F7.465380884968484
sI85
F8.602884408718419
sI86
F7.924812503605781
sI87
F6.92481250360578
sI88
F3.6768849901621956
sI89
F2.3323554663377006
sI90
F6.401250547548768
sI91
F7.924812503605781
sI92
F2.2737608124268522
sI93
F4.532495080827021
sI94
F4.734987944725764
sI95
F7.017921907997262
sI96
F9.92481250360578
sI97
F9.92481250360578
sI98
F4.902444690577326
sI99
F7.117457581548177
sI100
F4.837349662355442
sI101
F8.92481250360578
sI102
F9.339850002884624
sI103
F6.532495080827021
sI104
F9.92481250360578
sI105
F7.602884408718419
sI106
F9.339850002884624
sI107
F8.339850002884624
sI108
F7.754887502163469
sI109
F6.676884990162196
sI110
F7.465380884968484
sI111
F8.339850002884624
sI112
F4.169925001442312
sI113
F4.994075166042895
sI114
F9.92481250360578
sI115
F7.339850002884624
sI116
F9.92481250360578
sI117
F8.339850002884624
sI118
F7.339850002884624
sI119
F9.92481250360578
sI120
F5.837349662355441
sI121
F7.602884408718419
sI122
F5.837349662355441
sI123
F7.2243727854646895
sI124
F6.117457581548177
sI125
F4.994075166042895
sI126
F5.280956313831057
sI127
F9.339850002884624
sI128
F6.676884990162196
sI129
F6.465380884968484
sI130
F8.602884408718419
sI131
F9.92481250360578
sI132
F8.602884408718419
sI133
F7.339850002884624
sI134
F9.92481250360578
sI135
F5.04216945424394
sI136
F6.465380884968484
sI137
F6.602884408718419
sI138
F6.837349662355441
sI139
F4.602884408718419
sI140
F7.924812503605781
sI141
F7.924812503605781
sI142
F7.339850002884624
sI143
F7.2243727854646895
sI144
F6.169925001442312
sI145
F8.602884408718419
sI146
F5.370223651928144
sI147
F5.310102659490573
sI148
F6.280956313831056
sI149
F6.169925001442312
sI150
F9.92481250360578
sI151
F7.117457581548177
sI152
F9.339850002884624
sI153
F6.465380884968484
sI154
F9.92481250360578
sI155
F7.339850002884624
sI156
F5.715359137976831
sI157
F7.924812503605781
sI158
F8.92481250360578
sI159
F8.602884408718419
sI160
F8.117457581548177
sI161
F6.339850002884625
sI162
F5.676884990162196
sI163
F6.837349662355441
sI164
F7.602884408718419
sI165
F8.92481250360578
sI166
F8.92481250360578
sI167
F5.837349662355441
sI168
F9.92481250360578
sI169
F5.676884990162196
sI170
F7.339850002884624
sI171
F8.92481250360578
sI172
F7.2243727854646895
sI173
F5.92481250360578
sI174
F7.924812503605781
sI175
F3.9361278168336153
sI176
F6.532495080827021
sI177
F7.602884408718419
sI178
F9.92481250360578
sI179
F6.92481250360578
sI180
F7.754887502163469
sI181
F6.017921907997262
sI182
F9.92481250360578
sI183
F7.017921907997262
sI184
F5.676884990162196
sI185
F6.532495080827021
sI186
F8.117457581548177
sI187
F7.339850002884624
sI188
F7.339850002884624
sI189
F8.117457581548177
sI190
F8.602884408718419
sI191
F7.117457581548177
sI192
F4.734987944725764
sI193
F7.924812503605781
sI194
F5.92481250360578
sI195
F4.156628178828855
sI196
F6.532495080827021
sI197
F7.117457581548177
sI198
F7.117457581548177
sI199
F5.280956313831057
sI200
F8.602884408718419
sI201
F8.117457581548177
sI202
F9.92481250360578
sI203
F8.92481250360578
sI204
F8.92481250360578
sI205
F8.92481250360578
sI206
F7.465380884968484
sI207
F4.354956895274833
sI208
F8.339850002884624
sI209
F7.754887502163469
sI210
F9.339850002884624
sI211
F7.2243727854646895
sI212
F8.117457581548177
sI213
F7.754887502163469
sI214
F9.92481250360578
sI215
F7.2243727854646895
sI216
F7.602884408718419
sI217
F8.92481250360578
sI218
F6.465380884968484
sI219
F6.676884990162196
sI220
F6.339850002884625
sI221
F9.339850002884624
sI222
F5.0668315084782085
sI223
F9.339850002884624
sI224
F5.169925001442312
sI225
F8.92481250360578
sI226
F4.143452790081121
sI227
F7.602884408718419
sI228
F9.92481250360578
sI229
F6.339850002884625
sI230
F9.92481250360578
sI231
F5.224372785464689
sI232
F9.92481250360578
sI233
F8.339850002884624
sI234
F7.339850002884624
sI235
F7.754887502163469
sI236
F8.92481250360578
sI237
F5.401250547548768
sI238
F9.339850002884624
sI239
F8.92481250360578
sI240
F5.0668315084782085
sI241
F5.5672604989876975
sI242
F8.339850002884624
sI243
F7.754887502163469
sI244
F7.117457581548177
sI245
F8.92481250360578
sI246
F6.532495080827021
sI247
F9.92481250360578
sI248
F8.92481250360578
sI249
F6.676884990162196
sI250
F5.970616193218906
sI251
F7.117457581548177
sI252
F7.339850002884624
sI253
F5.715359137976831
sI254
F4.04216945424394
sI255
F7.017921907997262
sI256
F8.92481250360578
sI257
F4.266601020853986
sI258
F4.370223651928144
sI259
F9.92481250360578
sI260
F8.92481250360578
sI261
F7.117457581548177
sI262
F6.92481250360578
sI263
F6.339850002884625
sI264
F3.7649411668273913
sI265
F3.9940751660428946
sI266
F7.465380884968484
sI267
F4.880418384247328
sI268
F4.676884990162196
sI269
F6.754887502163469
sI270
F3.816288046827612
sI271
F7.754887502163469
sI272
F5.754887502163469
sI273
F6.92481250360578
sI274
F8.92481250360578
sI275
F2.8006911917765933
sI276
F8.92481250360578
sI277
F6.532495080827021
sI278
F6.2243727854646895
sI279
F6.0668315084782085
sI280
F9.92481250360578
sI281
F7.2243727854646895
sI282
F4.902444690577326
sI283
F4.754887502163469
sI284
F5.880418384247327
sI285
F8.117457581548177
sI286
F9.339850002884624
sI287
F7.924812503605781
sI288
F7.754887502163469
sI289
F8.92481250360578
sI290
F6.401250547548768
sI291
F7.017921907997262
sI292
F4.5672604989876975
sI293
F7.602884408718419
sI294
F8.92481250360578
sI295
F5.970616193218906
sI296
F7.602884408718419
sI297
F7.465380884968484
sI298
F7.339850002884624
sI299
F9.92481250360578
sI300
F5.795529486660814
sI301
F3.6959938131099004
sI302
F5.715359137976831
sI303
F6.602884408718419
sI304
F6.837349662355441
sI305
F7.339850002884624
sI306
F8.92481250360578
sI307
F6.676884990162196
sI308
F6.837349662355441
sI309
F7.924812503605781
sI310
F7.465380884968484
sI311
F6.602884408718419
sI312
F5.280956313831057
sI313
F4.639410284743533
sI314
F6.92481250360578
sI315
F6.465380884968484
sI316
F6.532495080827021
sI317
F9.92481250360578
sI318
F5.370223651928144
sI319
F6.676884990162196
sI320
F9.339850002884624
sI321
F8.339850002884624
sI322
F5.401250547548768
sI323
F8.339850002884624
sI324
F5.92481250360578
sI325
F7.117457581548177
sI326
F7.465380884968484
sI327
F9.92481250360578
sI328
F8.339850002884624
sI329
F8.92481250360578
sI330
F5.4329594072761065
sI331
F5.339850002884624
sI332
F4.902444690577326
sI333
F9.92481250360578
sI334
F8.339850002884624
sI335
F8.92481250360578
sI336
F8.602884408718419
sI337
F9.339850002884624
sI338
F6.92481250360578
sI339
F8.92481250360578
sI340
F8.92481250360578
sI341
F3.3248996614186535
sI342
F7.017921907997262
sI343
F7.339850002884624
sI344
F8.602884408718419
sI345
F6.169925001442312
sI346
F6.0668315084782085
sI347
F7.754887502163469
sI348
F8.339850002884624
sI349
F8.339850002884624
sI350
F4.449079072639383
sI351
F7.465380884968484
sI352
F9.92481250360578
sI353
F7.465380884968484
sI354
F7.924812503605781
sI355
F7.465380884968484
sI356
F6.837349662355441
sI357
F9.92481250360578
sI358
F9.339850002884624
sI359
F7.117457581548177
sI360
F4.370223651928144
sI361
F8.92481250360578
sI362
F4.266601020853986
sI363
F4.252387161634285
sI364
F6.602884408718419
sI365
F9.92481250360578
sI366
F8.92481250360578
sI367
F9.92481250360578
sI368
F7.924812503605781
sI369
F6.602884408718419
sI370
F9.92481250360578
sI371
F6.602884408718419
sI372
F7.465380884968484
sI373
F2.811070337556593
sI374
F5.970616193218906
sI375
F8.602884408718419
sI376
F9.339850002884624
sI377
F4.169925001442312
sI378
F4.924812503605781
sI379
F9.92481250360578
sI380
F6.117457581548177
sI381
F8.92481250360578
sI382
F6.532495080827021
sI383
F8.602884408718419
sI384
F7.602884408718419
sI385
F8.339850002884624
sI386
F6.754887502163469
sI387
F9.92481250360578
sI388
F8.92481250360578
sI389
F6.532495080827021
sI390
F9.92481250360578
sI391
F9.339850002884624
sI392
F5.880418384247327
sI393
F8.92481250360578
sI394
F7.2243727854646895
sI395
F8.602884408718419
sI396
F6.117457581548177
sI397
F8.602884408718419
sI398
F7.339850002884624
sI399
F9.92481250360578
sI400
F9.92481250360578
sI401
F8.92481250360578
sI402
F5.970616193218906
sI403
F7.017921907997262
sI404
F4.449079072639383
sI405
F5.715359137976831
sI406
F8.92481250360578
sI407
F8.339850002884624
sI408
F7.602884408718419
sI409
F6.754887502163469
sI410
F9.92481250360578
sI411
F6.676884990162196
sI412
F9.92481250360578
sI413
F8.117457581548177
sI414
F6.465380884968484
sI415
F9.92481250360578
sI416
F7.924812503605781
sI417
F8.92481250360578
sI418
F4.816288046827612
sI419
F7.602884408718419
sI420
F9.92481250360578
sI421
F8.92481250360578
sI422
F5.143452790081121
sI423
F9.339850002884624
sI424
F9.92481250360578
sI425
F9.339850002884624
sI426
F9.92481250360578
sI427
F6.169925001442312
sI428
F2.9361278168336153
sI429
F7.465380884968484
sI430
F6.280956313831056
sI431
F8.92481250360578
sI432
F9.92481250360578
sI433
F9.339850002884624
sI434
F9.92481250360578
sI435
F6.017921907997262
sI436
F3.7449034135908463
sI437
F8.92481250360578
sI438
F8.339850002884624
sI439
F7.465380884968484
sI440
F9.92481250360578
sI441
F9.92481250360578
sI442
F5.143452790081121
sI443
F7.602884408718419
sI444
F8.117457581548177
sI445
F6.602884408718419
sI446
F8.117457581548177
sI447
F8.339850002884624
sI448
F7.465380884968484
sI449
F9.92481250360578
sI450
F7.117457581548177
sI451
F9.92481250360578
sI452
F9.92481250360578
sI453
F7.465380884968484
sI454
F5.224372785464689
sI455
F6.401250547548768
sI456
F9.339850002884624
sI457
F7.924812503605781
sI458
F7.2243727854646895
sI459
F7.754887502163469
sI460
F5.0668315084782085
sI461
F7.924812503605781
sI462
F7.465380884968484
sI463
F7.924812503605781
sI464
F6.169925001442312
sI465
F8.602884408718419
sI466
F8.339850002884624
sI467
F5.715359137976831
sI468
F7.602884408718419
sI469
F3.1632612711613017
sI470
F6.676884990162196
sI471
F7.017921907997262
sI472
F9.92481250360578
sI473
F8.339850002884624
sI474
F6.92481250360578
sI475
F5.04216945424394
sI476
F6.339850002884625
sI477
F9.92481250360578
sI478
F7.924812503605781
sI479
F4.515421567468079
sI480
F9.339850002884624
sI481
F5.602884408718419
sI482
F7.017921907997262
sI483
F8.602884408718419
sI484
F8.339850002884624
sI485
F6.602884408718419
sI486
F5.465380884968483
sI487
F8.92481250360578
sI488
F8.117457581548177
sI489
F7.2243727854646895
sI490
F8.339850002884624
sI491
F6.754887502163469
sI492
F7.924812503605781
sI493
F9.92481250360578
sI494
F5.339850002884624
sI495
F8.602884408718419
sI496
F4.238311976422563
sI497
F5.143452790081121
sI498
F7.602884408718419
sI499
F7.465380884968484
sI500
F9.92481250360578
sI501
F6.92481250360578
sI502
F8.339850002884624
sI503
F3.6028844087184186
sI504
F6.754887502163469
sI505
F8.602884408718419
sI506
F7.465380884968484
sI507
F7.465380884968484
sI508
F4.143452790081121
sI509
F9.92481250360578
sI510
F5.465380884968483
sI511
F6.92481250360578
sI512
F8.339850002884624
sI513
F9.339850002884624
sI514
F3.593895625491164
sI515
F7.924812503605781
sI516
F8.92481250360578
sI517
F5.970616193218906
sI518
F9.92481250360578
sI519
F8.602884408718419
sI520
F6.837349662355441
sI521
F7.924812503605781
sI522
F7.924812503605781
sI523
F4.795529486660815
sI524
F7.754887502163469
sI525
F6.754887502163469
sI526
F4.401250547548768
sI527
F9.92481250360578
sI528
F3.775065384101099
sI529
F9.92481250360578
sI530
F8.602884408718419
sI531
F6.754887502163469
sI532
F6.837349662355441
sI533
F9.92481250360578
sI534
F7.2243727854646895
sI535
F7.339850002884624
sI536
F5.795529486660814
sI537
F8.92481250360578
sI538
F6.676884990162196
sI539
F8.117457581548177
sI540
F4.880418384247328
sI541
F7.602884408718419
sI542
F7.602884408718419
sI543
F9.92481250360578
sI544
F6.532495080827021
sI545
F9.92481250360578
sI546
F8.92481250360578
sI547
F7.754887502163469
sI548
F7.017921907997262
sI549
F7.339850002884624
sI550
F9.339850002884624
sI551
F8.117457581548177
sI552
F8.117457581548177
sI553
F7.754887502163469
sI554
F5.339850002884624
sI555
F9.92481250360578
sI556
F5.224372785464689
sI557
F3.924812503605781
sI558
F5.280956313831057
sI559
F6.017921907997262
sI560
F6.339850002884625
sI561
F7.602884408718419
sI562
F6.92481250360578
sI563
F8.117457581548177
sI564
F5.676884990162196
sI565
F7.465380884968484
sI566
F9.339850002884624
sI567
F5.169925001442312
sI568
F7.2243727854646895
sI569
F6.0668315084782085
sI570
F8.339850002884624
sI571
F6.532495080827021
sI572
F8.117457581548177
sI573
F4.354956895274833
sI574
F7.602884408718419
sI575
F7.339850002884624
sI576
F7.465380884968484
sI577
F7.754887502163469
sI578
F6.754887502163469
sI579
F5.92481250360578
sI580
F8.117457581548177
sI581
F7.2243727854646895
sI582
F8.339850002884624
sI583
F6.602884408718419
sI584
F5.370223651928144
sI585
F6.92481250360578
sI586
F9.92481250360578
sI587
F5.0668315084782085
sI588
F7.117457581548177
sI589
F9.92481250360578
sI590
F7.465380884968484
sI591
F7.017921907997262
sI592
F7.117457581548177
sI593
F8.92481250360578
sI594
F9.92481250360578
sI595
F7.017921907997262
sI596
F7.924812503605781
sI597
F6.339850002884625
sI598
F9.92481250360578
sI599
F4.5672604989876975
sI600
F4.602884408718419
sI601
F7.465380884968484
sI602
F8.339850002884624
sI603
F5.401250547548768
sI604
F7.465380884968484
sI605
F8.339850002884624
sI606
F9.92481250360578
sI607
F6.532495080827021
sI608
F7.017921907997262
sI609
F7.924812503605781
sI610
F5.715359137976831
sI611
F9.339850002884624
sI612
F7.924812503605781
sI613
F7.924812503605781
sI614
F9.339850002884624
sI615
F8.92481250360578
sI616
F9.92481250360578
sI617
F9.92481250360578
sI618
F5.280956313831057
sI619
F8.92481250360578
sI620
F5.880418384247327
sI621
F5.401250547548768
sI622
F9.92481250360578
sI623
F8.117457581548177
sI624
F6.92481250360578
sI625
F9.92481250360578
sI626
F7.2243727854646895
sI627
F8.92481250360578
sI628
F7.339850002884624
sI629
F5.017921907997263
sI630
F7.602884408718419
sI631
F8.92481250360578
sI632
F7.465380884968484
sI633
F9.92481250360578
sI634
F9.92481250360578
sI635
F5.837349662355441
sI636
F6.92481250360578
sI637
F6.465380884968484
sI638
F7.754887502163469
sI639
F4.902444690577326
sI640
F5.795529486660814
sI641
F4.676884990162196
sI642
F8.602884408718419
sI643
F8.339850002884624
sI644
F9.92481250360578
sI645
F8.602884408718419
sI646
F9.339850002884624
sI647
F9.92481250360578
sI648
F6.676884990162196
sI649
F9.339850002884624
sI650
F9.339850002884624
sI651
F8.92481250360578
sI652
F8.339850002884624
sI653
F5.602884408718419
sI654
F6.676884990162196
sI655
F7.754887502163469
sI656
F9.92481250360578
sI657
F7.2243727854646895
sI658
F8.92481250360578
sI659
F5.602884408718419
sI660
F8.117457581548177
sI661
F5.602884408718419
sI662
F4.754887502163469
sI663
F8.602884408718419
sI664
F9.92481250360578
sI665
F7.117457581548177
sI666
F4.532495080827021
sI667
F7.339850002884624
sI668
F3.6486880983315433
ssS'num_docs'
p9
I1944
sS'num_nnz'
p10
I16264
sS'dfs'
p11
(dp12
I0
I90
sI1
I10
sI2
I6
sI3
I101
sI4
I13
sI5
I59
sI6
I31
sI7
I6
sI8
I4
sI9
I4
sI10
I55
sI11
I2
sI12
I53
sI13
I4
sI14
I10
sI15
I10
sI16
I5
sI17
I44
sI18
I2
sI19
I2
sI20
I4
sI21
I34
sI22
I8
sI23
I6
sI24
I13
sI25
I13
sI26
I4
sI27
I4
sI28
I5
sI29
I2
sI30
I15
sI31
I13
sI32
I30
sI33
I10
sI34
I4
sI35
I36
sI36
I36
sI37
I6
sI38
I2
sI39
I10
sI40
I6
sI41
I39
sI42
I20
sI43
I27
sI44
I13
sI45
I11
sI46
I24
sI47
I16
sI48
I36
sI49
I6
sI50
I20
sI51
I20
sI52
I40
sI53
I3
sI54
I27
sI55
I6
sI56
I2
sI57
I16
sI58
I21
sI59
I7
sI60
I4
sI61
I12
sI62
I9
sI63
I2
sI64
I87
sI65
I30
sI66
I9
sI67
I32
sI68
I60
sI69
I16
sI70
I7
sI71
I4
sI72
I4
sI73
I41
sI74
I2
sI75
I18
sI76
I33
sI77
I14
sI78
I22
sI79
I2
sI80
I22
sI81
I4
sI82
I4
sI83
I9
sI84
I11
sI85
I5
sI86
I8
sI87
I16
sI88
I152
sI89
I386
sI90
I23
sI91
I8
sI92
I402
sI93
I84
sI94
I73
sI95
I15
sI96
I2
sI97
I2
sI98
I65
sI99
I14
sI100
I68
sI101
I4
sI102
I3
sI103
I21
sI104
I2
sI105
I10
sI106
I3
sI107
I6
sI108
I9
sI109
I19
sI110
I11
sI111
I6
sI112
I108
sI113
I61
sI114
I2
sI115
I12
sI116
I2
sI117
I6
sI118
I12
sI119
I2
sI120
I34
sI121
I10
sI122
I34
sI123
I13
sI124
I28
sI125
I61
sI126
I50
sI127
I3
sI128
I19
sI129
I22
sI130
I5
sI131
I2
sI132
I5
sI133
I12
sI134
I2
sI135
I59
sI136
I22
sI137
I20
sI138
I17
sI139
I80
sI140
I8
sI141
I8
sI142
I12
sI143
I13
sI144
I27
sI145
I5
sI146
I47
sI147
I49
sI148
I25
sI149
I27
sI150
I2
sI151
I14
sI152
I3
sI153
I22
sI154
I2
sI155
I12
sI156
I37
sI157
I8
sI158
I4
sI159
I5
sI160
I7
sI161
I24
sI162
I38
sI163
I17
sI164
I10
sI165
I4
sI166
I4
sI167
I34
sI168
I2
sI169
I38
sI170
I12
sI171
I4
sI172
I13
sI173
I32
sI174
I8
sI175
I127
sI176
I21
sI177
I10
sI178
I2
sI179
I16
sI180
I9
sI181
I30
sI182
I2
sI183
I15
sI184
I38
sI185
I21
sI186
I7
sI187
I12
sI188
I12
sI189
I7
sI190
I5
sI191
I14
sI192
I73
sI193
I8
sI194
I32
sI195
I109
sI196
I21
sI197
I14
sI198
I14
sI199
I50
sI200
I5
sI201
I7
sI202
I2
sI203
I4
sI204
I4
sI205
I4
sI206
I11
sI207
I95
sI208
I6
sI209
I9
sI210
I3
sI211
I13
sI212
I7
sI213
I9
sI214
I2
sI215
I13
sI216
I10
sI217
I4
sI218
I22
sI219
I19
sI220
I24
sI221
I3
sI222
I58
sI223
I3
sI224
I54
sI225
I4
sI226
I110
sI227
I10
sI228
I2
sI229
I24
sI230
I2
sI231
I52
sI232
I2
sI233
I6
sI234
I12
sI235
I9
sI236
I4
sI237
I46
sI238
I3
sI239
I4
sI240
I58
sI241
I41
sI242
I6
sI243
I9
sI244
I14
sI245
I4
sI246
I21
sI247
I2
sI248
I4
sI249
I19
sI250
I31
sI251
I14
sI252
I12
sI253
I37
sI254
I118
sI255
I15
sI256
I4
sI257
I101
sI258
I94
sI259
I2
sI260
I4
sI261
I14
sI262
I16
sI263
I24
sI264
I143
sI265
I122
sI266
I11
sI267
I66
sI268
I76
sI269
I18
sI270
I138
sI271
I9
sI272
I36
sI273
I16
sI274
I4
sI275
I279
sI276
I4
sI277
I21
sI278
I26
sI279
I29
sI280
I2
sI281
I13
sI282
I65
sI283
I72
sI284
I33
sI285
I7
sI286
I3
sI287
I8
sI288
I9
sI289
I4
sI290
I23
sI291
I15
sI292
I82
sI293
I10
sI294
I4
sI295
I31
sI296
I10
sI297
I11
sI298
I12
sI299
I2
sI300
I35
sI301
I150
sI302
I37
sI303
I20
sI304
I17
sI305
I12
sI306
I4
sI307
I19
sI308
I17
sI309
I8
sI310
I11
sI311
I20
sI312
I50
sI313
I78
sI314
I16
sI315
I22
sI316
I21
sI317
I2
sI318
I47
sI319
I19
sI320
I3
sI321
I6
sI322
I46
sI323
I6
sI324
I32
sI325
I14
sI326
I11
sI327
I2
sI328
I6
sI329
I4
sI330
I45
sI331
I48
sI332
I65
sI333
I2
sI334
I6
sI335
I4
sI336
I5
sI337
I3
sI338
I16
sI339
I4
sI340
I4
sI341
I194
sI342
I15
sI343
I12
sI344
I5
sI345
I27
sI346
I29
sI347
I9
sI348
I6
sI349
I6
sI350
I89
sI351
I11
sI352
I2
sI353
I11
sI354
I8
sI355
I11
sI356
I17
sI357
I2
sI358
I3
sI359
I14
sI360
I94
sI361
I4
sI362
I101
sI363
I102
sI364
I20
sI365
I2
sI366
I4
sI367
I2
sI368
I8
sI369
I20
sI370
I2
sI371
I20
sI372
I11
sI373
I277
sI374
I31
sI375
I5
sI376
I3
sI377
I108
sI378
I64
sI379
I2
sI380
I28
sI381
I4
sI382
I21
sI383
I5
sI384
I10
sI385
I6
sI386
I18
sI387
I2
sI388
I4
sI389
I21
sI390
I2
sI391
I3
sI392
I33
sI393
I4
sI394
I13
sI395
I5
sI396
I28
sI397
I5
sI398
I12
sI399
I2
sI400
I2
sI401
I4
sI402
I31
sI403
I15
sI404
I89
sI405
I37
sI406
I4
sI407
I6
sI408
I10
sI409
I18
sI410
I2
sI411
I19
sI412
I2
sI413
I7
sI414
I22
sI415
I2
sI416
I8
sI417
I4
sI418
I69
sI419
I10
sI420
I2
sI421
I4
sI422
I55
sI423
I3
sI424
I2
sI425
I3
sI426
I2
sI427
I27
sI428
I254
sI429
I11
sI430
I25
sI431
I4
sI432
I2
sI433
I3
sI434
I2
sI435
I30
sI436
I145
sI437
I4
sI438
I6
sI439
I11
sI440
I2
sI441
I2
sI442
I55
sI443
I10
sI444
I7
sI445
I20
sI446
I7
sI447
I6
sI448
I11
sI449
I2
sI450
I14
sI451
I2
sI452
I2
sI453
I11
sI454
I52
sI455
I23
sI456
I3
sI457
I8
sI458
I13
sI459
I9
sI460
I58
sI461
I8
sI462
I11
sI463
I8
sI464
I27
sI465
I5
sI466
I6
sI467
I37
sI468
I10
sI469
I217
sI470
I19
sI471
I15
sI472
I2
sI473
I6
sI474
I16
sI475
I59
sI476
I24
sI477
I2
sI478
I8
sI479
I85
sI480
I3
sI481
I40
sI482
I15
sI483
I5
sI484
I6
sI485
I20
sI486
I44
sI487
I4
sI488
I7
sI489
I13
sI490
I6
sI491
I18
sI492
I8
sI493
I2
sI494
I48
sI495
I5
sI496
I103
sI497
I55
sI498
I10
sI499
I11
sI500
I2
sI501
I16
sI502
I6
sI503
I160
sI504
I18
sI505
I5
sI506
I11
sI507
I11
sI508
I110
sI509
I2
sI510
I44
sI511
I16
sI512
I6
sI513
I3
sI514
I161
sI515
I8
sI516
I4
sI517
I31
sI518
I2
sI519
I5
sI520
I17
sI521
I8
sI522
I8
sI523
I70
sI524
I9
sI525
I18
sI526
I92
sI527
I2
sI528
I142
sI529
I2
sI530
I5
sI531
I18
sI532
I17
sI533
I2
sI534
I13
sI535
I12
sI536
I35
sI537
I4
sI538
I19
sI539
I7
sI540
I66
sI541
I10
sI542
I10
sI543
I2
sI544
I21
sI545
I2
sI546
I4
sI547
I9
sI548
I15
sI549
I12
sI550
I3
sI551
I7
sI552
I7
sI553
I9
sI554
I48
sI555
I2
sI556
I52
sI557
I128
sI558
I50
sI559
I30
sI560
I24
sI561
I10
sI562
I16
sI563
I7
sI564
I38
sI565
I11
sI566
I3
sI567
I54
sI568
I13
sI569
I29
sI570
I6
sI571
I21
sI572
I7
sI573
I95
sI574
I10
sI575
I12
sI576
I11
sI577
I9
sI578
I18
sI579
I32
sI580
I7
sI581
I13
sI582
I6
sI583
I20
sI584
I47
sI585
I16
sI586
I2
sI587
I58
sI588
I14
sI589
I2
sI590
I11
sI591
I15
sI592
I14
sI593
I4
sI594
I2
sI595
I15
sI596
I8
sI597
I24
sI598
I2
sI599
I82
sI600
I80
sI601
I11
sI602
I6
sI603
I46
sI604
I11
sI605
I6
sI606
I2
sI607
I21
sI608
I15
sI609
I8
sI610
I37
sI611
I3
sI612
I8
sI613
I8
sI614
I3
sI615
I4
sI616
I2
sI617
I2
sI618
I50
sI619
I4
sI620
I33
sI621
I46
sI622
I2
sI623
I7
sI624
I16
sI625
I2
sI626
I13
sI627
I4
sI628
I12
sI629
I60
sI630
I10
sI631
I4
sI632
I11
sI633
I2
sI634
I2
sI635
I34
sI636
I16
sI637
I22
sI638
I9
sI639
I65
sI640
I35
sI641
I76
sI642
I5
sI643
I6
sI644
I2
sI645
I5
sI646
I3
sI647
I2
sI648
I19
sI649
I3
sI650
I3
sI651
I4
sI652
I6
sI653
I40
sI654
I19
sI655
I9
sI656
I2
sI657
I13
sI658
I4
sI659
I40
sI660
I7
sI661
I40
sI662
I72
sI663
I5
sI664
I2
sI665
I14
sI666
I84
sI667
I12
sI668
I155
ssS'id2word'
p13
NsS'wglobal'
p14
cgensim.models.tfidfmodel
df2idf
p15
sS'wlocal'
p16
cgensim.utils
identity
p17
sb.