ccopy_reg
_reconstructor
p0
(cgensim.models.tfidfmodel
TfidfModel
p1
c__builtin__
object
p2
Ntp3
Rp4
(dp5
S'normalize'
p6
I01
sS'idfs'
p7
(dp8
I0
F2.332123861993251
sI1
F6.66432029233444
sI2
F5.886712713670888
sI3
F5.223747700948459
sI4
F7.471675214392045
sI5
F5.771235496250952
sI6
F8.471675214392045
sI7
F6.471675214392045
sI8
F4.045410459689946
sI9
F6.471675214392045
sI10
F7.149747119504682
sI11
F8.471675214392045
sI12
F5.771235496250952
sI13
F6.66432029233444
sI14
F7.471675214392045
sI15
F6.886712713670888
sI16
F4.886712713670889
sI17
F5.886712713670888
sI18
F3.9798221180623696
sI19
F4.3423921974470785
sI20
F7.471675214392045
sI21
F6.886712713670888
sI22
F2.8134637316402498
sI23
F6.471675214392045
sI24
F5.223747700948459
sI25
F5.471675214392045
sI26
F5.149747119504682
sI27
F6.301750212949732
sI28
F5.471675214392045
sI29
F5.471675214392045
sI30
F5.66432029233444
sI31
F7.149747119504682
sI32
F7.149747119504682
sI33
F6.301750212949732
sI34
F4.186272995529796
sI35
F5.66432029233444
sI36
F3.7437547598288456
sI37
F7.886712713670889
sI38
F5.384212373141706
sI39
F5.66432029233444
sI40
F5.886712713670888
sI41
F4.517478904005169
sI42
F6.66432029233444
sI43
F6.66432029233444
sI44
F7.886712713670889
sI45
F6.66432029233444
sI46
F6.886712713670888
sI47
F1.9018196060610966
sI48
F7.149747119504682
sI49
F6.149747119504682
sI50
F3.4055860239342723
sI51
F6.471675214392045
sI52
F3.6643202923344402
sI53
F5.0122435957547475
sI54
F5.886712713670888
sI55
F7.149747119504682
sI56
F3.7437547598288456
sI57
F5.66432029233444
sI58
F6.471675214392045
sI59
F5.771235496250952
sI60
F5.079357791613285
sI61
F6.66432029233444
sI62
F7.149747119504682
sI63
F6.471675214392045
sI64
F5.301750212949732
sI65
F6.301750212949732
sI66
F4.427281095033591
sI67
F6.66432029233444
sI68
F8.471675214392045
sI69
F6.301750212949732
sI70
F7.471675214392045
sI71
F7.149747119504682
sI72
F5.301750212949732
sI73
F5.66432029233444
sI74
F7.886712713670889
sI75
F5.0122435957547475
sI76
F7.149747119504682
sI77
F7.886712713670889
sI78
F6.886712713670888
sI79
F6.0122435957547475
sI80
F5.771235496250952
sI81
F6.0122435957547475
sI82
F8.471675214392045
sI83
F7.886712713670889
sI84
F6.471675214392045
sI85
F6.301750212949732
sI86
F7.471675214392045
sI87
F5.771235496250952
sI88
F4.66432029233444
sI89
F5.079357791613285
sI90
F6.66432029233444
sI91
F2.9798221180623696
sI92
F5.0122435957547475
sI93
F7.886712713670889
sI94
F2.1678944662149413
sI95
F5.471675214392045
sI96
F5.771235496250952
sI97
F6.886712713670888
sI98
F5.564784618783526
sI99
F6.301750212949732
sI100
F5.223747700948459
sI101
F3.799249872420549
sI102
F6.0122435957547475
sI103
F6.301750212949732
sI104
F5.149747119504682
sI105
F7.149747119504682
sI106
F5.886712713670888
sI107
F6.0122435957547475
sI108
F5.66432029233444
sI109
F6.66432029233444
sI110
F6.471675214392045
sI111
F6.471675214392045
sI112
F6.149747119504682
sI113
F5.886712713670888
sI114
F7.149747119504682
sI115
F5.66432029233444
sI116
F5.0122435957547475
sI117
F6.471675214392045
sI118
F5.66432029233444
sI119
F6.471675214392045
sI120
F5.384212373141706
sI121
F2.626185163447669
sI122
F7.471675214392045
sI123
F6.301750212949732
sI124
F4.471675214392044
sI125
F5.223747700948459
sI126
F5.66432029233444
sI127
F5.0122435957547475
sI128
F7.886712713670889
sI129
F5.384212373141706
sI130
F4.948113258335032
sI131
F5.564784618783526
sI132
F6.66432029233444
sI133
F6.66432029233444
sI134
F6.886712713670888
sI135
F7.149747119504682
sI136
F6.886712713670888
sI137
F6.886712713670888
sI138
F6.886712713670888
sI139
F7.886712713670889
sI140
F6.886712713670888
sI141
F5.079357791613285
sI142
F5.223747700948459
sI143
F7.886712713670889
sI144
F4.517478904005169
sI145
F4.82781902461732
sI146
F4.0122435957547475
sI147
F8.471675214392045
sI148
F5.301750212949732
sI149
F4.771235496250952
sI150
F4.471675214392044
sI151
F7.471675214392045
sI152
F5.771235496250952
sI153
F3.7712354962509527
sI154
F6.471675214392045
sI155
F4.564784618783526
sI156
F2.3017502129497323
sI157
F6.66432029233444
sI158
F5.149747119504682
sI159
F5.564784618783526
sI160
F5.886712713670888
sI161
F6.471675214392045
sI162
F5.771235496250952
sI163
F3.5174789040051695
sI164
F5.384212373141706
sI165
F4.948113258335032
sI166
F6.149747119504682
sI167
F7.886712713670889
sI168
F4.0122435957547475
sI169
F6.886712713670888
sI170
F6.301750212949732
sI171
F3.9798221180623696
sI172
F8.471675214392045
sI173
F6.149747119504682
sI174
F8.471675214392045
sI175
F4.301750212949732
sI176
F5.301750212949732
sI177
F7.471675214392045
sI178
F6.66432029233444
sI179
F4.079357791613284
sI180
F5.886712713670888
sI181
F5.384212373141706
sI182
F4.517478904005169
sI183
F7.886712713670889
sI184
F6.471675214392045
sI185
F7.886712713670889
sI186
F5.66432029233444
sI187
F5.384212373141706
sI188
F7.149747119504682
sI189
F6.886712713670888
sI190
F5.771235496250952
sI191
F7.886712713670889
sI192
F8.471675214392045
sI193
F5.66432029233444
sI194
F2.785174687208826
sI195
F5.66432029233444
sI196
F5.471675214392045
sI197
F7.471675214392045
sI198
F7.886712713670889
sI199
F6.301750212949732
sI200
F8.471675214392045
sI201
F6.886712713670888
sI202
F5.886712713670888
sI203
F5.301750212949732
sI204
F7.886712713670889
sI205
F6.471675214392045
sI206
F5.471675214392045
sI207
F7.149747119504682
sI208
F6.66432029233444
sI209
F4.948113258335032
sI210
F3.799249872420549
sI211
F6.886712713670888
sI212
F6.471675214392045
sI213
F5.384212373141706
sI214
F3.7437547598288456
sI215
F4.886712713670889
sI216
F7.471675214392045
sI217
F5.886712713670888
sI218
F8.471675214392045
sI219
F7.149747119504682
sI220
F4.771235496250952
sI221
F7.149747119504682
sI222
F5.301750212949732
sI223
F7.149747119504682
sI224
F7.471675214392045
sI225
F7.471675214392045
sI226
F6.149747119504682
sI227
F4.3423921974470785
sI228
F6.66432029233444
sI229
F5.886712713670888
sI230
F5.471675214392045
sI231
F5.079357791613285
sI232
F2.6772593480419387
sI233
F5.771235496250952
sI234
F7.471675214392045
sI235
F7.471675214392045
sI236
F2.4829905276198785
sI237
F4.613694219264473
sI238
F5.66432029233444
sI239
F6.886712713670888
sI240
F7.471675214392045
sI241
F5.771235496250952
sI242
F5.66432029233444
sI243
F7.149747119504682
sI244
F6.149747119504682
sI245
F4.149747119504682
sI246
F6.886712713670888
sI247
F4.886712713670889
sI248
F7.149747119504682
sI249
F5.886712713670888
sI250
F3.3631507576138753
sI251
F2.079357791613284
sI252
F8.471675214392045
sI253
F6.66432029233444
sI254
F7.471675214392045
sI255
F4.384212373141705
sI256
F2.9798221180623696
sI257
F4.82781902461732
sI258
F7.471675214392045
sI259
F6.0122435957547475
sI260
F5.771235496250952
sI261
F4.3423921974470785
sI262
F5.079357791613285
sI263
F5.564784618783526
sI264
F5.471675214392045
sI265
F6.886712713670888
sI266
F7.471675214392045
sI267
F6.149747119504682
sI268
F6.471675214392045
sI269
F7.471675214392045
sI270
F6.0122435957547475
sI271
F6.0122435957547475
sI272
F3.638785200227303
sI273
F5.301750212949732
sI274
F4.82781902461732
sI275
F5.223747700948459
sI276
F6.301750212949732
sI277
F5.564784618783526
sI278
F5.223747700948459
sI279
F5.66432029233444
sI280
F7.149747119504682
sI281
F8.471675214392045
sI282
F7.471675214392045
sI283
F5.66432029233444
sI284
F6.471675214392045
sI285
F6.0122435957547475
sI286
F3.3631507576138753
sI287
F6.66432029233444
sI288
F8.471675214392045
sI289
F5.471675214392045
sI290
F8.471675214392045
sI291
F5.564784618783526
sI292
F5.471675214392045
sI293
F6.149747119504682
sI294
F4.3423921974470785
sI295
F7.886712713670889
sI296
F6.471675214392045
sI297
F5.384212373141706
sI298
F6.0122435957547475
sI299
F5.564784618783526
sI300
F6.149747119504682
sI301
F7.149747119504682
sI302
F6.301750212949732
sI303
F6.471675214392045
sI304
F6.301750212949732
sI305
F5.66432029233444
sI306
F8.471675214392045
sI307
F4.82781902461732
sI308
F5.471675214392045
sI309
F4.771235496250952
sI310
F6.149747119504682
sI311
F5.471675214392045
sI312
F6.471675214392045
sI313
F4.886712713670889
sI314
F4.149747119504682
sI315
F4.0122435957547475
sI316
F4.262221848763095
sI317
F7.471675214392045
sI318
F6.886712713670888
sI319
F4.66432029233444
sI320
F7.471675214392045
sI321
F5.0122435957547475
sI322
F6.471675214392045
sI323
F5.471675214392045
sI324
F4.517478904005169
sI325
F7.149747119504682
sI326
F7.471675214392045
sI327
F8.471675214392045
sI328
F4.716787712228577
sI329
F6.886712713670888
sI330
F8.471675214392045
sI331
F8.471675214392045
sI332
F5.886712713670888
sI333
F5.471675214392045
sI334
F5.886712713670888
sI335
F6.886712713670888
sI336
F6.301750212949732
sI337
F5.66432029233444
sI338
F5.223747700948459
sI339
F5.301750212949732
sI340
F6.886712713670888
sI341
F5.886712713670888
sI342
F6.66432029233444
sI343
F7.471675214392045
sI344
F7.471675214392045
sI345
F6.301750212949732
sI346
F6.66432029233444
sI347
F7.886712713670889
sI348
F4.3423921974470785
sI349
F5.771235496250952
sI350
F7.471675214392045
sI351
F5.771235496250952
sI352
F3.9798221180623696
sI353
F5.223747700948459
ssS'num_docs'
p9
I710
sS'num_nnz'
p10
I6446
sS'dfs'
p11
(dp12
I0
I141
sI1
I7
sI2
I12
sI3
I19
sI4
I4
sI5
I13
sI6
I2
sI7
I8
sI8
I43
sI9
I8
sI10
I5
sI11
I2
sI12
I13
sI13
I7
sI14
I4
sI15
I6
sI16
I24
sI17
I12
sI18
I45
sI19
I35
sI20
I4
sI21
I6
sI22
I101
sI23
I8
sI24
I19
sI25
I16
sI26
I20
sI27
I9
sI28
I16
sI29
I16
sI30
I14
sI31
I5
sI32
I5
sI33
I9
sI34
I39
sI35
I14
sI36
I53
sI37
I3
sI38
I17
sI39
I14
sI40
I12
sI41
I31
sI42
I7
sI43
I7
sI44
I3
sI45
I7
sI46
I6
sI47
I190
sI48
I5
sI49
I10
sI50
I67
sI51
I8
sI52
I56
sI53
I22
sI54
I12
sI55
I5
sI56
I53
sI57
I14
sI58
I8
sI59
I13
sI60
I21
sI61
I7
sI62
I5
sI63
I8
sI64
I18
sI65
I9
sI66
I33
sI67
I7
sI68
I2
sI69
I9
sI70
I4
sI71
I5
sI72
I18
sI73
I14
sI74
I3
sI75
I22
sI76
I5
sI77
I3
sI78
I6
sI79
I11
sI80
I13
sI81
I11
sI82
I2
sI83
I3
sI84
I8
sI85
I9
sI86
I4
sI87
I13
sI88
I28
sI89
I21
sI90
I7
sI91
I90
sI92
I22
sI93
I3
sI94
I158
sI95
I16
sI96
I13
sI97
I6
sI98
I15
sI99
I9
sI100
I19
sI101
I51
sI102
I11
sI103
I9
sI104
I20
sI105
I5
sI106
I12
sI107
I11
sI108
I14
sI109
I7
sI110
I8
sI111
I8
sI112
I10
sI113
I12
sI114
I5
sI115
I14
sI116
I22
sI117
I8
sI118
I14
sI119
I8
sI120
I17
sI121
I115
sI122
I4
sI123
I9
sI124
I32
sI125
I19
sI126
I14
sI127
I22
sI128
I3
sI129
I17
sI130
I23
sI131
I15
sI132
I7
sI133
I7
sI134
I6
sI135
I5
sI136
I6
sI137
I6
sI138
I6
sI139
I3
sI140
I6
sI141
I21
sI142
I19
sI143
I3
sI144
I31
sI145
I25
sI146
I44
sI147
I2
sI148
I18
sI149
I26
sI150
I32
sI151
I4
sI152
I13
sI153
I52
sI154
I8
sI155
I30
sI156
I144
sI157
I7
sI158
I20
sI159
I15
sI160
I12
sI161
I8
sI162
I13
sI163
I62
sI164
I17
sI165
I23
sI166
I10
sI167
I3
sI168
I44
sI169
I6
sI170
I9
sI171
I45
sI172
I2
sI173
I10
sI174
I2
sI175
I36
sI176
I18
sI177
I4
sI178
I7
sI179
I42
sI180
I12
sI181
I17
sI182
I31
sI183
I3
sI184
I8
sI185
I3
sI186
I14
sI187
I17
sI188
I5
sI189
I6
sI190
I13
sI191
I3
sI192
I2
sI193
I14
sI194
I103
sI195
I14
sI196
I16
sI197
I4
sI198
I3
sI199
I9
sI200
I2
sI201
I6
sI202
I12
sI203
I18
sI204
I3
sI205
I8
sI206
I16
sI207
I5
sI208
I7
sI209
I23
sI210
I51
sI211
I6
sI212
I8
sI213
I17
sI214
I53
sI215
I24
sI216
I4
sI217
I12
sI218
I2
sI219
I5
sI220
I26
sI221
I5
sI222
I18
sI223
I5
sI224
I4
sI225
I4
sI226
I10
sI227
I35
sI228
I7
sI229
I12
sI230
I16
sI231
I21
sI232
I111
sI233
I13
sI234
I4
sI235
I4
sI236
I127
sI237
I29
sI238
I14
sI239
I6
sI240
I4
sI241
I13
sI242
I14
sI243
I5
sI244
I10
sI245
I40
sI246
I6
sI247
I24
sI248
I5
sI249
I12
sI250
I69
sI251
I168
sI252
I2
sI253
I7
sI254
I4
sI255
I34
sI256
I90
sI257
I25
sI258
I4
sI259
I11
sI260
I13
sI261
I35
sI262
I21
sI263
I15
sI264
I16
sI265
I6
sI266
I4
sI267
I10
sI268
I8
sI269
I4
sI270
I11
sI271
I11
sI272
I57
sI273
I18
sI274
I25
sI275
I19
sI276
I9
sI277
I15
sI278
I19
sI279
I14
sI280
I5
sI281
I2
sI282
I4
sI283
I14
sI284
I8
sI285
I11
sI286
I69
sI287
I7
sI288
I2
sI289
I16
sI290
I2
sI291
I15
sI292
I16
sI293
I10
sI294
I35
sI295
I3
sI296
I8
sI297
I17
sI298
I11
sI299
I15
sI300
I10
sI301
I5
sI302
I9
sI303
I8
sI304
I9
sI305
I14
sI306
I2
sI307
I25
sI308
I16
sI309
I26
sI310
I10
sI311
I16
sI312
I8
sI313
I24
sI314
I40
sI315
I44
sI316
I37
sI317
I4
sI318
I6
sI319
I28
sI320
I4
sI321
I22
sI322
I8
sI323
I16
sI324
I31
sI325
I5
sI326
I4
sI327
I2
sI328
I27
sI329
I6
sI330
I2
sI331
I2
sI332
I12
sI333
I16
sI334
I12
sI335
I6
sI336
I9
sI337
I14
sI338
I19
sI339
I18
sI340
I6
sI341
I12
sI342
I7
sI343
I4
sI344
I4
sI345
I9
sI346
I7
sI347
I3
sI348
I35
sI349
I13
sI350
I4
sI351
I13
sI352
I45
sI353
I19
ssS'id2word'
p13
NsS'wglobal'
p14
cgensim.models.tfidfmodel
df2idf
p15
sS'wlocal'
p16
cgensim.utils
identity
p17
sb.