ccopy_reg
_reconstructor
p0
(cgensim.models.tfidfmodel
TfidfModel
p1
c__builtin__
object
p2
Ntp3
Rp4
(dp5
S'normalize'
p6
I01
sS'idfs'
p7
(dp8
I0
F3.2820353677638496
sI1
F6.109198770901634
sI2
F6.205414086160938
sI3
F4.168577317980566
sI4
F9.06339508128851
sI5
F5.853941715659561
sI6
F9.478432580567354
sI7
F4.217905030344134
sI8
F5.15650448567999
sI9
F4.205414086160937
sI10
F9.06339508128851
sI11
F6.671077658509749
sI12
F9.06339508128851
sI13
F9.06339508128851
sI14
F8.256040159230905
sI15
F10.06339508128851
sI16
F7.478432580567354
sI17
F5.934112064343543
sI18
F6.156504485679991
sI19
F7.478432580567354
sI20
F8.256040159230905
sI21
F5.815467567844924
sI22
F6.97593224003817
sI23
F9.478432580567354
sI24
F8.478432580567354
sI25
F5.893470079846197
sI26
F5.934112064343543
sI27
F10.06339508128851
sI28
F7.256040159230905
sI29
F6.478432580567354
sI30
F7.478432580567354
sI31
F5.705843076670426
sI32
F5.815467567844924
sI33
F5.893470079846197
sI34
F6.539833125231497
sI35
F8.741466986401146
sI36
F9.478432580567354
sI37
F8.063395081288508
sI38
F6.7414669864011465
sI39
F8.741466986401146
sI40
F9.478432580567354
sI41
F3.997305890830737
sI42
F6.671077658509749
sI43
F6.97593224003817
sI44
F6.308507579125041
sI45
F4.5876616503221115
sI46
F3.097610796626422
sI47
F10.06339508128851
sI48
F8.478432580567354
sI49
F6.205414086160938
sI50
F10.06339508128851
sI51
F7.603963462651212
sI52
F6.893470079846197
sI53
F8.256040159230905
sI54
F10.06339508128851
sI55
F5.15650448567999
sI56
F7.156504485679991
sI57
F7.063395081288509
sI58
F4.180752031926668
sI59
F8.741466986401146
sI60
F8.741466986401146
sI61
F8.741466986401146
sI62
F6.539833125231497
sI63
F2.233672346202451
sI64
F4.205414086160937
sI65
F6.603963462651212
sI66
F2.0299720797510594
sI67
F5.448685237173302
sI68
F4.97593224003817
sI69
F7.256040159230905
sI70
F7.063395081288509
sI71
F3.768774332396882
sI72
F7.7414669864011465
sI73
F3.97593224003817
sI74
F9.478432580567354
sI75
F8.478432580567354
sI76
F5.603963462651213
sI77
F4.390969739317014
sI78
F8.256040159230905
sI79
F5.741466986401147
sI80
F6.539833125231497
sI81
F6.539833125231497
sI82
F4.815467567844924
sI83
F4.28203536776385
sI84
F9.06339508128851
sI85
F7.603963462651212
sI86
F5.603963462651213
sI87
F6.205414086160938
sI88
F8.063395081288508
sI89
F8.741466986401146
sI90
F8.256040159230905
sI91
F9.478432580567354
sI92
F4.834576390792629
sI93
F5.97593224003817
sI94
F4.074710394516344
sI95
F6.893470079846197
sI96
F5.705843076670426
sI97
F4.193030361705104
sI98
F7.156504485679991
sI99
F7.478432580567354
sI100
F6.478432580567354
sI101
F10.06339508128851
sI102
F5.230505067123768
sI103
F6.419538891513784
sI104
F5.256040159230905
sI105
F6.362955363147417
sI106
F6.603963462651212
sI107
F7.156504485679991
sI108
F5.205414086160937
sI109
F8.256040159230905
sI110
F6.06339508128851
sI111
F4.00811264578732
sI112
F4.893470079846197
sI113
F8.741466986401146
sI114
F6.815467567844924
sI115
F5.603963462651213
sI116
F5.390969739317014
sI117
F7.362955363147418
sI118
F4.144531844013915
sI119
F7.156504485679991
sI120
F5.419538891513785
sI121
F7.478432580567354
sI122
F6.419538891513784
sI123
F9.478432580567354
sI124
F8.063395081288508
sI125
F5.419538891513785
sI126
F9.478432580567354
sI127
F5.419538891513785
sI128
F5.603963462651213
sI129
F9.478432580567354
sI130
F8.063395081288508
sI131
F5.893470079846197
sI132
F5.478432580567353
sI133
F10.06339508128851
sI134
F9.06339508128851
sI135
F7.603963462651212
sI136
F7.362955363147418
sI137
F8.741466986401146
sI138
F10.06339508128851
sI139
F5.390969739317014
sI140
F10.06339508128851
sI141
F4.256040159230905
sI142
F7.478432580567354
sI143
F6.419538891513784
sI144
F8.478432580567354
sI145
F6.2560401592309045
sI146
F4.654004145150808
sI147
F6.478432580567354
sI148
F6.019000961930057
sI149
F9.06339508128851
sI150
F6.97593224003817
sI151
F9.06339508128851
sI152
F7.893470079846198
sI153
F6.97593224003817
sI154
F6.308507579125041
sI155
F4.997305890830737
sI156
F8.256040159230905
sI157
F5.230505067123768
sI158
F6.109198770901634
sI159
F3.5876616503221115
sI160
F9.06339508128851
sI161
F7.362955363147418
sI162
F8.741466986401146
sI163
F7.893470079846198
sI164
F6.109198770901634
sI165
F6.893470079846197
sI166
F4.086115157788593
sI167
F10.06339508128851
sI168
F4.913647961783827
sI169
F6.815467567844924
sI170
F7.063395081288509
sI171
F7.7414669864011465
sI172
F5.671077658509749
sI173
F9.478432580567354
sI174
F6.419538891513784
sI175
F5.815467567844924
sI176
F7.063395081288509
sI177
F6.109198770901634
sI178
F9.06339508128851
sI179
F8.741466986401146
sI180
F2.9136479617838273
sI181
F3.8249903419634306
sI182
F7.7414669864011465
sI183
F4.777992862426261
sI184
F8.741466986401146
sI185
F9.06339508128851
sI186
F9.06339508128851
sI187
F6.893470079846197
sI188
F7.603963462651212
sI189
F7.893470079846198
sI190
F5.893470079846197
sI191
F4.217905030344134
sI192
F7.156504485679991
sI193
F6.205414086160938
sI194
F8.478432580567354
sI195
F6.419538891513784
sI196
F9.478432580567354
sI197
F4.230505067123768
sI198
F6.603963462651212
sI199
F4.688355649941585
sI200
F9.478432580567354
sI201
F6.7414669864011465
sI202
F4.086115157788593
sI203
F7.256040159230905
sI204
F4.834576390792629
sI205
F4.997305890830737
sI206
F10.06339508128851
sI207
F3.478432580567353
sI208
F4.539833125231497
sI209
F8.063395081288508
sI210
F4.539833125231497
sI211
F6.2560401592309045
sI212
F5.893470079846197
sI213
F5.603963462651213
sI214
F5.109198770901634
sI215
F4.097610796626422
sI216
F7.603963462651212
sI217
F9.478432580567354
sI218
F7.256040159230905
sI219
F7.603963462651212
sI220
F9.478432580567354
sI221
F5.603963462651213
sI222
F7.063395081288509
sI223
F6.97593224003817
sI224
F9.478432580567354
sI225
F10.06339508128851
sI226
F3.501152657067437
sI227
F5.539833125231496
sI228
F6.893470079846197
sI229
F7.7414669864011465
sI230
F5.603963462651213
sI231
F6.419538891513784
sI232
F5.741466986401147
sI233
F8.478432580567354
sI234
F8.478432580567354
sI235
F8.478432580567354
sI236
F7.256040159230905
sI237
F8.256040159230905
sI238
F5.256040159230905
sI239
F4.834576390792629
sI240
F3.997305890830737
sI241
F6.205414086160938
sI242
F5.893470079846197
sI243
F7.478432580567354
sI244
F3.3980591641033335
sI245
F9.478432580567354
sI246
F7.7414669864011465
sI247
F7.362955363147418
sI248
F6.603963462651212
sI249
F4.705843076670426
sI250
F10.06339508128851
sI251
F7.478432580567354
sI252
F5.603963462651213
sI253
F6.109198770901634
sI254
F10.06339508128851
sI255
F7.478432580567354
sI256
F8.478432580567354
sI257
F5.478432580567353
sI258
F4.180752031926668
sI259
F6.7414669864011465
sI260
F8.256040159230905
sI261
F9.478432580567354
sI262
F5.180752031926668
sI263
F7.478432580567354
sI264
F3.2820353677638496
sI265
F8.256040159230905
sI266
F5.539833125231496
sI267
F5.28203536776385
sI268
F6.205414086160938
sI269
F6.308507579125041
sI270
F10.06339508128851
sI271
F5.478432580567353
sI272
F7.478432580567354
sI273
F5.934112064343543
sI274
F7.893470079846198
sI275
F6.019000961930057
sI276
F4.85394171565956
sI277
F5.934112064343543
sI278
F7.063395081288509
sI279
F9.478432580567354
sI280
F5.508806229610872
sI281
F6.7414669864011465
sI282
F4.4051835985367145
sI283
F3.2560401592309054
sI284
F5.180752031926668
sI285
F9.06339508128851
sI286
F3.9548706245103404
sI287
F5.132657743725623
sI288
F6.419538891513784
sI289
F10.06339508128851
sI290
F8.256040159230905
sI291
F8.256040159230905
sI292
F9.06339508128851
sI293
F5.086115157788593
sI294
F8.741466986401146
sI295
F7.256040159230905
sI296
F10.06339508128851
sI297
F7.7414669864011465
sI298
F6.815467567844924
sI299
F6.109198770901634
sI300
F7.7414669864011465
sI301
F6.671077658509749
sI302
F5.815467567844924
sI303
F8.478432580567354
sI304
F6.893470079846197
sI305
F7.7414669864011465
sI306
F5.362955363147417
sI307
F5.777992862426261
sI308
F6.97593224003817
sI309
F6.478432580567354
sI310
F5.934112064343543
sI311
F5.571541984958835
sI312
F5.205414086160937
sI313
F6.671077658509749
sI314
F5.853941715659561
sI315
F8.478432580567354
sI316
F5.603963462651213
sI317
F9.478432580567354
sI318
F10.06339508128851
sI319
F9.478432580567354
sI320
F9.478432580567354
sI321
F6.308507579125041
sI322
F8.063395081288508
sI323
F6.603963462651212
sI324
F2.0605800656814552
sI325
F8.063395081288508
sI326
F6.815467567844924
sI327
F6.539833125231497
sI328
F10.06339508128851
sI329
F8.741466986401146
sI330
F8.063395081288508
sI331
F4.349149563622387
sI332
F7.362955363147418
sI333
F5.508806229610872
sI334
F7.893470079846198
sI335
F4.85394171565956
sI336
F5.109198770901634
sI337
F6.97593224003817
sI338
F6.205414086160938
sI339
F6.362955363147417
sI340
F5.019000961930056
sI341
F6.06339508128851
sI342
F5.109198770901634
sI343
F5.777992862426261
sI344
F5.741466986401147
sI345
F10.06339508128851
sI346
F8.741466986401146
sI347
F6.815467567844924
sI348
F7.893470079846198
sI349
F7.603963462651212
sI350
F10.06339508128851
sI351
F6.419538891513784
sI352
F7.893470079846198
sI353
F8.478432580567354
sI354
F7.362955363147418
sI355
F4.448685237173301
sI356
F6.362955363147417
sI357
F7.603963462651212
sI358
F6.815467567844924
sI359
F10.06339508128851
sI360
F8.256040159230905
sI361
F5.419538891513785
sI362
F7.893470079846198
sI363
F10.06339508128851
sI364
F6.362955363147417
sI365
F8.478432580567354
sI366
F5.705843076670426
sI367
F7.256040159230905
sI368
F8.478432580567354
sI369
F3.8442265608263475
sI370
F7.893470079846198
sI371
F10.06339508128851
sI372
F9.478432580567354
sI373
F6.603963462651212
sI374
F7.603963462651212
sI375
F7.7414669864011465
sI376
F6.7414669864011465
sI377
F5.97593224003817
sI378
F6.019000961930057
sI379
F6.7414669864011465
sI380
F6.109198770901634
sI381
F8.256040159230905
sI382
F3.3219280948873626
sI383
F6.893470079846197
sI384
F7.478432580567354
sI385
F6.603963462651212
sI386
F6.603963462651212
sI387
F8.741466986401146
sI388
F7.478432580567354
sI389
F7.893470079846198
sI390
F6.205414086160938
sI391
F8.478432580567354
sI392
F9.06339508128851
sI393
F5.705843076670426
sI394
F6.06339508128851
sI395
F6.362955363147417
sI396
F7.7414669864011465
sI397
F6.97593224003817
sI398
F9.06339508128851
sI399
F4.243216118873322
sI400
F8.256040159230905
sI401
F4.4051835985367145
sI402
F9.478432580567354
sI403
F5.308507579125041
sI404
F8.741466986401146
sI405
F7.603963462651212
sI406
F5.893470079846197
sI407
F6.205414086160938
sI408
F8.741466986401146
sI409
F6.156504485679991
sI410
F5.97593224003817
sI411
F7.478432580567354
sI412
F5.539833125231496
sI413
F4.419538891513785
sI414
F7.362955363147418
sI415
F7.156504485679991
sI416
F5.478432580567353
sI417
F9.06339508128851
sI418
F5.853941715659561
sI419
F6.205414086160938
sI420
F6.2560401592309045
sI421
F8.478432580567354
sI422
F6.7414669864011465
sI423
F7.7414669864011465
sI424
F5.777992862426261
sI425
F8.256040159230905
sI426
F7.362955363147418
sI427
F8.063395081288508
sI428
F6.815467567844924
sI429
F3.883485991273575
sI430
F5.671077658509749
sI431
F9.06339508128851
sI432
F6.671077658509749
sI433
F9.06339508128851
sI434
F9.478432580567354
sI435
F7.156504485679991
sI436
F6.362955363147417
sI437
F2.8490759604877436
sI438
F7.7414669864011465
sI439
F3.806007238595858
sI440
F4.28203536776385
sI441
F5.33547462672531
sI442
F6.478432580567354
sI443
F6.478432580567354
sI444
F7.362955363147418
sI445
F7.7414669864011465
sI446
F6.156504485679991
sI447
F7.156504485679991
sI448
F6.205414086160938
sI449
F4.041027268260055
sI450
F8.063395081288508
sI451
F5.705843076670426
sI452
F6.671077658509749
sI453
F8.741466986401146
sI454
F10.06339508128851
sI455
F8.256040159230905
sI456
F5.741466986401147
sI457
F7.893470079846198
sI458
F2.9187368384566277
sI459
F8.741466986401146
sI460
F5.132657743725623
sI461
F6.97593224003817
sI462
F10.06339508128851
sI463
F7.478432580567354
sI464
F5.671077658509749
sI465
F6.362955363147417
sI466
F6.156504485679991
sI467
F5.934112064343543
sI468
F5.934112064343543
sI469
F6.815467567844924
sI470
F6.539833125231497
sI471
F6.419538891513784
sI472
F6.7414669864011465
sI473
F6.478432580567354
sI474
F5.934112064343543
sI475
F4.954870624510341
sI476
F8.256040159230905
sI477
F7.603963462651212
sI478
F6.893470079846197
sI479
F6.109198770901634
sI480
F6.893470079846197
sI481
F6.603963462651212
sI482
F6.539833125231497
sI483
F6.603963462651212
sI484
F5.308507579125041
sI485
F7.7414669864011465
sI486
F8.741466986401146
sI487
F8.063395081288508
sI488
F6.362955363147417
sI489
F8.478432580567354
sI490
F8.478432580567354
sI491
F5.934112064343543
sI492
F7.362955363147418
sI493
F6.308507579125041
sI494
F6.815467567844924
sI495
F8.741466986401146
sI496
F9.06339508128851
sI497
F7.893470079846198
sI498
F7.7414669864011465
sI499
F8.063395081288508
sI500
F5.086115157788593
sI501
F5.419538891513785
ssS'num_docs'
p9
I2140
sS'num_nnz'
p10
I18646
sS'dfs'
p11
(dp12
I0
I220
sI1
I31
sI2
I29
sI3
I119
sI4
I4
sI5
I37
sI6
I3
sI7
I115
sI8
I60
sI9
I116
sI10
I4
sI11
I21
sI12
I4
sI13
I4
sI14
I7
sI15
I2
sI16
I12
sI17
I35
sI18
I30
sI19
I12
sI20
I7
sI21
I38
sI22
I17
sI23
I3
sI24
I6
sI25
I36
sI26
I35
sI27
I2
sI28
I14
sI29
I24
sI30
I12
sI31
I41
sI32
I38
sI33
I36
sI34
I23
sI35
I5
sI36
I3
sI37
I8
sI38
I20
sI39
I5
sI40
I3
sI41
I134
sI42
I21
sI43
I17
sI44
I27
sI45
I89
sI46
I250
sI47
I2
sI48
I6
sI49
I29
sI50
I2
sI51
I11
sI52
I18
sI53
I7
sI54
I2
sI55
I60
sI56
I15
sI57
I16
sI58
I118
sI59
I5
sI60
I5
sI61
I5
sI62
I23
sI63
I455
sI64
I116
sI65
I22
sI66
I524
sI67
I49
sI68
I68
sI69
I14
sI70
I16
sI71
I157
sI72
I10
sI73
I136
sI74
I3
sI75
I6
sI76
I44
sI77
I102
sI78
I7
sI79
I40
sI80
I23
sI81
I23
sI82
I76
sI83
I110
sI84
I4
sI85
I11
sI86
I44
sI87
I29
sI88
I8
sI89
I5
sI90
I7
sI91
I3
sI92
I75
sI93
I34
sI94
I127
sI95
I18
sI96
I41
sI97
I117
sI98
I15
sI99
I12
sI100
I24
sI101
I2
sI102
I57
sI103
I25
sI104
I56
sI105
I26
sI106
I22
sI107
I15
sI108
I58
sI109
I7
sI110
I32
sI111
I133
sI112
I72
sI113
I5
sI114
I19
sI115
I44
sI116
I51
sI117
I13
sI118
I121
sI119
I15
sI120
I50
sI121
I12
sI122
I25
sI123
I3
sI124
I8
sI125
I50
sI126
I3
sI127
I50
sI128
I44
sI129
I3
sI130
I8
sI131
I36
sI132
I48
sI133
I2
sI134
I4
sI135
I11
sI136
I13
sI137
I5
sI138
I2
sI139
I51
sI140
I2
sI141
I112
sI142
I12
sI143
I25
sI144
I6
sI145
I28
sI146
I85
sI147
I24
sI148
I33
sI149
I4
sI150
I17
sI151
I4
sI152
I9
sI153
I17
sI154
I27
sI155
I67
sI156
I7
sI157
I57
sI158
I31
sI159
I178
sI160
I4
sI161
I13
sI162
I5
sI163
I9
sI164
I31
sI165
I18
sI166
I126
sI167
I2
sI168
I71
sI169
I19
sI170
I16
sI171
I10
sI172
I42
sI173
I3
sI174
I25
sI175
I38
sI176
I16
sI177
I31
sI178
I4
sI179
I5
sI180
I284
sI181
I151
sI182
I10
sI183
I78
sI184
I5
sI185
I4
sI186
I4
sI187
I18
sI188
I11
sI189
I9
sI190
I36
sI191
I115
sI192
I15
sI193
I29
sI194
I6
sI195
I25
sI196
I3
sI197
I114
sI198
I22
sI199
I83
sI200
I3
sI201
I20
sI202
I126
sI203
I14
sI204
I75
sI205
I67
sI206
I2
sI207
I192
sI208
I92
sI209
I8
sI210
I92
sI211
I28
sI212
I36
sI213
I44
sI214
I62
sI215
I125
sI216
I11
sI217
I3
sI218
I14
sI219
I11
sI220
I3
sI221
I44
sI222
I16
sI223
I17
sI224
I3
sI225
I2
sI226
I189
sI227
I46
sI228
I18
sI229
I10
sI230
I44
sI231
I25
sI232
I40
sI233
I6
sI234
I6
sI235
I6
sI236
I14
sI237
I7
sI238
I56
sI239
I75
sI240
I134
sI241
I29
sI242
I36
sI243
I12
sI244
I203
sI245
I3
sI246
I10
sI247
I13
sI248
I22
sI249
I82
sI250
I2
sI251
I12
sI252
I44
sI253
I31
sI254
I2
sI255
I12
sI256
I6
sI257
I48
sI258
I118
sI259
I20
sI260
I7
sI261
I3
sI262
I59
sI263
I12
sI264
I220
sI265
I7
sI266
I46
sI267
I55
sI268
I29
sI269
I27
sI270
I2
sI271
I48
sI272
I12
sI273
I35
sI274
I9
sI275
I33
sI276
I74
sI277
I35
sI278
I16
sI279
I3
sI280
I47
sI281
I20
sI282
I101
sI283
I224
sI284
I59
sI285
I4
sI286
I138
sI287
I61
sI288
I25
sI289
I2
sI290
I7
sI291
I7
sI292
I4
sI293
I63
sI294
I5
sI295
I14
sI296
I2
sI297
I10
sI298
I19
sI299
I31
sI300
I10
sI301
I21
sI302
I38
sI303
I6
sI304
I18
sI305
I10
sI306
I52
sI307
I39
sI308
I17
sI309
I24
sI310
I35
sI311
I45
sI312
I58
sI313
I21
sI314
I37
sI315
I6
sI316
I44
sI317
I3
sI318
I2
sI319
I3
sI320
I3
sI321
I27
sI322
I8
sI323
I22
sI324
I513
sI325
I8
sI326
I19
sI327
I23
sI328
I2
sI329
I5
sI330
I8
sI331
I105
sI332
I13
sI333
I47
sI334
I9
sI335
I74
sI336
I62
sI337
I17
sI338
I29
sI339
I26
sI340
I66
sI341
I32
sI342
I62
sI343
I39
sI344
I40
sI345
I2
sI346
I5
sI347
I19
sI348
I9
sI349
I11
sI350
I2
sI351
I25
sI352
I9
sI353
I6
sI354
I13
sI355
I98
sI356
I26
sI357
I11
sI358
I19
sI359
I2
sI360
I7
sI361
I50
sI362
I9
sI363
I2
sI364
I26
sI365
I6
sI366
I41
sI367
I14
sI368
I6
sI369
I149
sI370
I9
sI371
I2
sI372
I3
sI373
I22
sI374
I11
sI375
I10
sI376
I20
sI377
I34
sI378
I33
sI379
I20
sI380
I31
sI381
I7
sI382
I214
sI383
I18
sI384
I12
sI385
I22
sI386
I22
sI387
I5
sI388
I12
sI389
I9
sI390
I29
sI391
I6
sI392
I4
sI393
I41
sI394
I32
sI395
I26
sI396
I10
sI397
I17
sI398
I4
sI399
I113
sI400
I7
sI401
I101
sI402
I3
sI403
I54
sI404
I5
sI405
I11
sI406
I36
sI407
I29
sI408
I5
sI409
I30
sI410
I34
sI411
I12
sI412
I46
sI413
I100
sI414
I13
sI415
I15
sI416
I48
sI417
I4
sI418
I37
sI419
I29
sI420
I28
sI421
I6
sI422
I20
sI423
I10
sI424
I39
sI425
I7
sI426
I13
sI427
I8
sI428
I19
sI429
I145
sI430
I42
sI431
I4
sI432
I21
sI433
I4
sI434
I3
sI435
I15
sI436
I26
sI437
I297
sI438
I10
sI439
I153
sI440
I110
sI441
I53
sI442
I24
sI443
I24
sI444
I13
sI445
I10
sI446
I30
sI447
I15
sI448
I29
sI449
I130
sI450
I8
sI451
I41
sI452
I21
sI453
I5
sI454
I2
sI455
I7
sI456
I40
sI457
I9
sI458
I283
sI459
I5
sI460
I61
sI461
I17
sI462
I2
sI463
I12
sI464
I42
sI465
I26
sI466
I30
sI467
I35
sI468
I35
sI469
I19
sI470
I23
sI471
I25
sI472
I20
sI473
I24
sI474
I35
sI475
I69
sI476
I7
sI477
I11
sI478
I18
sI479
I31
sI480
I18
sI481
I22
sI482
I23
sI483
I22
sI484
I54
sI485
I10
sI486
I5
sI487
I8
sI488
I26
sI489
I6
sI490
I6
sI491
I35
sI492
I13
sI493
I27
sI494
I19
sI495
I5
sI496
I4
sI497
I9
sI498
I10
sI499
I8
sI500
I63
sI501
I50
ssS'id2word'
p13
NsS'wglobal'
p14
cgensim.models.tfidfmodel
df2idf
p15
sS'wlocal'
p16
cgensim.utils
identity
p17
sb.