ccopy_reg
_reconstructor
p0
(cgensim.models.tfidfmodel
TfidfModel
p1
c__builtin__
object
p2
Ntp3
Rp4
(dp5
S'normalize'
p6
I01
sS'idfs'
p7
(dp8
I0
F5.954196310386876
sI1
F3.8021932169418253
sI2
F7.124121311829187
sI3
F6.802193216941825
sI4
F3.9541963103868754
sI5
F6.124121311829187
sI6
F3.6978565571270896
sI7
F6.802193216941825
sI8
F5.316766389771583
sI9
F6.539158811108032
sI10
F8.124121311829187
sI11
F4.079727192470734
sI12
F8.124121311829187
sI13
F6.316766389771583
sI14
F7.539158811108032
sI15
F7.124121311829187
sI16
F3.632268215499513
sI17
F6.802193216941825
sI18
F8.124121311829187
sI19
F6.316766389771583
sI20
F5.954196310386876
sI21
F4.316766389771583
sI22
F6.802193216941825
sI23
F6.802193216941825
sI24
F5.539158811108031
sI25
F5.539158811108031
sI26
F5.124121311829188
sI27
F5.539158811108031
sI28
F8.124121311829187
sI29
F8.124121311829187
sI30
F5.954196310386876
sI31
F5.954196310386876
sI32
F7.124121311829187
sI33
F3.9541963103868754
sI34
F6.124121311829187
sI35
F2.494764691749578
sI36
F7.539158811108032
sI37
F6.802193216941825
sI38
F8.124121311829187
sI39
F4.876193798385603
sI40
F5.954196310386876
sI41
F5.802193216941825
sI42
F5.316766389771583
sI43
F5.036658470578848
sI44
F5.802193216941825
sI45
F3.7318038890504277
sI46
F5.802193216941825
sI47
F5.539158811108031
sI48
F7.539158811108032
sI49
F3.9541963103868754
sI50
F7.124121311829187
sI51
F3.4236815936880958
sI52
F7.124121311829187
sI53
F4.036658470578849
sI54
F7.539158811108032
sI55
F6.316766389771583
sI56
F8.124121311829187
sI57
F4.954196310386876
sI58
F7.124121311829187
sI59
F5.954196310386876
sI60
F4.480265122054463
sI61
F6.802193216941825
sI62
F7.124121311829187
sI63
F4.316766389771583
sI64
F7.124121311829187
sI65
F7.539158811108032
sI66
F8.124121311829187
sI67
F5.423681593688095
sI68
F2.749081880482263
sI69
F4.600559355772175
sI70
F5.539158811108031
sI71
F5.954196310386876
sI72
F5.423681593688095
sI73
F7.539158811108032
sI74
F5.539158811108031
sI75
F6.802193216941825
sI76
F6.316766389771583
sI77
F6.124121311829187
sI78
F3.4802651220544627
sI79
F4.423681593688095
sI80
F5.539158811108031
sI81
F5.664689693191891
sI82
F5.316766389771583
sI83
F6.316766389771583
sI84
F5.539158811108031
sI85
F7.539158811108032
sI86
F7.124121311829187
sI87
F3.342761598304528
sI88
F6.802193216941825
sI89
F7.124121311829187
sI90
F5.539158811108031
sI91
F5.954196310386876
sI92
F6.802193216941825
sI93
F3.4236815936880958
sI94
F2.2661403167016156
sI95
F6.802193216941825
sI96
F6.124121311829187
sI97
F3.8021932169418253
sI98
F6.539158811108032
sI99
F7.539158811108032
sI100
F5.802193216941825
sI101
F6.316766389771583
sI102
F7.124121311829187
sI103
F6.802193216941825
sI104
F2.66468969319189
sI105
F3.632268215499513
sI106
F4.954196310386876
sI107
F8.124121311829187
sI108
F4.876193798385603
sI109
F6.802193216941825
sI110
F5.217230716220669
sI111
F5.423681593688095
sI112
F6.802193216941825
sI113
F6.124121311829187
sI114
F5.802193216941825
sI115
F6.539158811108032
sI116
F7.539158811108032
sI117
F5.036658470578848
sI118
F5.217230716220669
sI119
F6.316766389771583
sI120
F4.169925001442312
sI121
F4.876193798385603
sI122
F3.4236815936880958
sI123
F5.316766389771583
sI124
F6.802193216941825
sI125
F5.423681593688095
sI126
F6.539158811108032
sI127
F4.954196310386876
sI128
F2.146841388329271
sI129
F8.124121311829187
sI130
F5.802193216941825
sI131
F4.36923380966572
sI132
F6.316766389771583
sI133
F4.423681593688095
sI134
F7.124121311829187
sI135
F5.664689693191891
sI136
F4.731803889050428
sI137
F6.802193216941825
sI138
F4.036658470578849
sI139
F7.124121311829187
sI140
F5.124121311829188
sI141
F5.664689693191891
sI142
F5.316766389771583
sI143
F6.124121311829187
sI144
F7.124121311829187
sI145
F5.802193216941825
sI146
F7.124121311829187
sI147
F5.802193216941825
sI148
F6.316766389771583
sI149
F3.9541963103868754
sI150
F5.124121311829188
sI151
F6.124121311829187
sI152
F7.539158811108032
sI153
F7.539158811108032
sI154
F7.124121311829187
sI155
F4.802193216941825
sI156
F4.731803889050428
sI157
F7.124121311829187
sI158
F4.664689693191891
sI159
F5.664689693191891
sI160
F4.480265122054463
sI161
F8.124121311829187
sI162
F8.124121311829187
sI163
F7.539158811108032
sI164
F6.124121311829187
sI165
F6.539158811108032
sI166
F4.664689693191891
sI167
F6.802193216941825
sI168
F6.539158811108032
sI169
F5.036658470578848
sI170
F8.124121311829187
sI171
F6.802193216941825
sI172
F5.954196310386876
sI173
F8.124121311829187
sI174
F6.539158811108032
sI175
F6.802193216941825
sI176
F4.802193216941825
sI177
F4.036658470578849
sI178
F4.802193216941825
sI179
F5.124121311829188
sI180
F4.217230716220669
sI181
F6.802193216941825
sI182
F6.316766389771583
sI183
F5.217230716220669
sI184
F6.124121311829187
sI185
F3.914667946200238
sI186
F5.664689693191891
sI187
F5.664689693191891
sI188
F5.802193216941825
sI189
F7.124121311829187
sI190
F5.954196310386876
sI191
F5.036658470578848
sI192
F5.539158811108031
sI193
F5.316766389771583
sI194
F5.316766389771583
sI195
F6.539158811108032
sI196
F7.539158811108032
sI197
F5.954196310386876
sI198
F4.876193798385603
sI199
F4.600559355772175
sI200
F6.802193216941825
sI201
F7.539158811108032
sI202
F6.802193216941825
sI203
F6.539158811108032
sI204
F6.802193216941825
sI205
F6.124121311829187
sI206
F6.539158811108032
sI207
F4.876193798385603
sI208
F5.124121311829188
sI209
F2.784271308944563
sI210
F6.539158811108032
sI211
F3.7318038890504277
sI212
F8.124121311829187
sI213
F7.539158811108032
sI214
F6.539158811108032
sI215
F7.124121311829187
sI216
F8.124121311829187
sI217
F5.423681593688095
sI218
F5.802193216941825
sI219
F6.539158811108032
sI220
F3.632268215499513
sI221
F3.1933839742663017
sI222
F6.539158811108032
sI223
F8.124121311829187
sI224
F4.36923380966572
sI225
F8.124121311829187
sI226
F5.316766389771583
sI227
F7.124121311829187
sI228
F7.539158811108032
sI229
F7.124121311829187
sI230
F8.124121311829187
sI231
F6.802193216941825
sI232
F4.954196310386876
sI233
F7.124121311829187
sI234
F4.423681593688095
sI235
F4.539158811108032
sI236
F5.423681593688095
sI237
F5.316766389771583
sI238
F6.316766389771583
sI239
F5.124121311829188
sI240
F4.802193216941825
ssS'num_docs'
p9
I558
sS'num_nnz'
p10
I3608
sS'dfs'
p11
(dp12
I0
I9
sI1
I40
sI2
I4
sI3
I5
sI4
I36
sI5
I8
sI6
I43
sI7
I5
sI8
I14
sI9
I6
sI10
I2
sI11
I33
sI12
I2
sI13
I7
sI14
I3
sI15
I4
sI16
I45
sI17
I5
sI18
I2
sI19
I7
sI20
I9
sI21
I28
sI22
I5
sI23
I5
sI24
I12
sI25
I12
sI26
I16
sI27
I12
sI28
I2
sI29
I2
sI30
I9
sI31
I9
sI32
I4
sI33
I36
sI34
I8
sI35
I99
sI36
I3
sI37
I5
sI38
I2
sI39
I19
sI40
I9
sI41
I10
sI42
I14
sI43
I17
sI44
I10
sI45
I42
sI46
I10
sI47
I12
sI48
I3
sI49
I36
sI50
I4
sI51
I52
sI52
I4
sI53
I34
sI54
I3
sI55
I7
sI56
I2
sI57
I18
sI58
I4
sI59
I9
sI60
I25
sI61
I5
sI62
I4
sI63
I28
sI64
I4
sI65
I3
sI66
I2
sI67
I13
sI68
I83
sI69
I23
sI70
I12
sI71
I9
sI72
I13
sI73
I3
sI74
I12
sI75
I5
sI76
I7
sI77
I8
sI78
I50
sI79
I26
sI80
I12
sI81
I11
sI82
I14
sI83
I7
sI84
I12
sI85
I3
sI86
I4
sI87
I55
sI88
I5
sI89
I4
sI90
I12
sI91
I9
sI92
I5
sI93
I52
sI94
I116
sI95
I5
sI96
I8
sI97
I40
sI98
I6
sI99
I3
sI100
I10
sI101
I7
sI102
I4
sI103
I5
sI104
I88
sI105
I45
sI106
I18
sI107
I2
sI108
I19
sI109
I5
sI110
I15
sI111
I13
sI112
I5
sI113
I8
sI114
I10
sI115
I6
sI116
I3
sI117
I17
sI118
I15
sI119
I7
sI120
I31
sI121
I19
sI122
I52
sI123
I14
sI124
I5
sI125
I13
sI126
I6
sI127
I18
sI128
I126
sI129
I2
sI130
I10
sI131
I27
sI132
I7
sI133
I26
sI134
I4
sI135
I11
sI136
I21
sI137
I5
sI138
I34
sI139
I4
sI140
I16
sI141
I11
sI142
I14
sI143
I8
sI144
I4
sI145
I10
sI146
I4
sI147
I10
sI148
I7
sI149
I36
sI150
I16
sI151
I8
sI152
I3
sI153
I3
sI154
I4
sI155
I20
sI156
I21
sI157
I4
sI158
I22
sI159
I11
sI160
I25
sI161
I2
sI162
I2
sI163
I3
sI164
I8
sI165
I6
sI166
I22
sI167
I5
sI168
I6
sI169
I17
sI170
I2
sI171
I5
sI172
I9
sI173
I2
sI174
I6
sI175
I5
sI176
I20
sI177
I34
sI178
I20
sI179
I16
sI180
I30
sI181
I5
sI182
I7
sI183
I15
sI184
I8
sI185
I37
sI186
I11
sI187
I11
sI188
I10
sI189
I4
sI190
I9
sI191
I17
sI192
I12
sI193
I14
sI194
I14
sI195
I6
sI196
I3
sI197
I9
sI198
I19
sI199
I23
sI200
I5
sI201
I3
sI202
I5
sI203
I6
sI204
I5
sI205
I8
sI206
I6
sI207
I19
sI208
I16
sI209
I81
sI210
I6
sI211
I42
sI212
I2
sI213
I3
sI214
I6
sI215
I4
sI216
I2
sI217
I13
sI218
I10
sI219
I6
sI220
I45
sI221
I61
sI222
I6
sI223
I2
sI224
I27
sI225
I2
sI226
I14
sI227
I4
sI228
I3
sI229
I4
sI230
I2
sI231
I5
sI232
I18
sI233
I4
sI234
I26
sI235
I24
sI236
I13
sI237
I14
sI238
I7
sI239
I16
sI240
I20
ssS'id2word'
p13
NsS'wglobal'
p14
cgensim.models.tfidfmodel
df2idf
p15
sS'wlocal'
p16
cgensim.utils
identity
p17
sb.